target datalayout = "e-m:e-p270:32:32-p271:32:32-p272:64:64-i64:64-i128:128-f80:128-n8:16:32:64-S128"
target triple = "x86_64-unknown-linux-gnu"

%union.__CONST_SOCKADDR_ARG = type { ptr }
%struct.sockaddr_un = type { i16, [108 x i8] }

@.str = private unnamed_addr constant [19 x i8] c"fcntl(F_GETFL): %s\00", align 1
@.str.1 = private unnamed_addr constant [30 x i8] c"fcntl(F_SETFL,O_NONBLOCK): %s\00", align 1
@.str.9 = private unnamed_addr constant [12 x i8] c"connect: %s\00", align 1

; Function Attrs: nounwind uwtable
define dso_local i32 @anetSetBlock(ptr noundef %err, i32 noundef %fd, i32 noundef %non_block) #0 {
entry:
  %retval = alloca i32, align 4
  %err.addr = alloca ptr, align 8
  %fd.addr = alloca i32, align 4
  %non_block.addr = alloca i32, align 4
  %flags = alloca i32, align 4
  store ptr %err, ptr %err.addr, align 8
  store i32 %fd, ptr %fd.addr, align 4
  store i32 %non_block, ptr %non_block.addr, align 4
  %0 = load i32, ptr %fd.addr, align 4
  %call = call i32 (i32, i32, ...) @fcntl64(i32 noundef %0, i32 noundef 3)
  store i32 %call, ptr %flags, align 4
  %cmp = icmp eq i32 %call, -1
  br i1 %cmp, label %if.then, label %if.end

if.then:                                          ; preds = %entry
  %1 = load ptr, ptr %err.addr, align 8
  %call1 = call ptr @__errno_location() #8
  %2 = load i32, ptr %call1, align 4
  %call2 = call ptr @strerror(i32 noundef %2) #7
  call void (ptr, ptr, ...) @anetSetError(ptr noundef %1, ptr noundef @.str, ptr noundef %call2)
  store i32 -1, ptr %retval, align 4
  br label %return

if.end:                                           ; preds = %entry
  %3 = load i32, ptr %flags, align 4
  %and = and i32 %3, 2048
  %tobool = icmp ne i32 %and, 0
  %lnot = xor i1 %tobool, true
  %lnot3 = xor i1 %lnot, true
  %lnot.ext = zext i1 %lnot3 to i32
  %4 = load i32, ptr %non_block.addr, align 4
  %tobool4 = icmp ne i32 %4, 0
  %lnot5 = xor i1 %tobool4, true
  %lnot7 = xor i1 %lnot5, true
  %lnot.ext8 = zext i1 %lnot7 to i32
  %cmp9 = icmp eq i32 %lnot.ext, %lnot.ext8
  br i1 %cmp9, label %if.then10, label %if.end11

if.then10:                                        ; preds = %if.end
  store i32 0, ptr %retval, align 4
  br label %return

if.end11:                                         ; preds = %if.end
  %5 = load i32, ptr %non_block.addr, align 4
  %tobool12 = icmp ne i32 %5, 0
  br i1 %tobool12, label %if.then13, label %if.else

if.then13:                                        ; preds = %if.end11
  %6 = load i32, ptr %flags, align 4
  %or = or i32 %6, 2048
  store i32 %or, ptr %flags, align 4
  br label %if.end15

if.else:                                          ; preds = %if.end11
  %7 = load i32, ptr %flags, align 4
  %and14 = and i32 %7, -2049
  store i32 %and14, ptr %flags, align 4
  br label %if.end15

if.end15:                                         ; preds = %if.else, %if.then13
  %8 = load i32, ptr %fd.addr, align 4
  %9 = load i32, ptr %flags, align 4
  %call16 = call i32 (i32, i32, ...) @fcntl64(i32 noundef %8, i32 noundef 4, i32 noundef %9)
  %cmp17 = icmp eq i32 %call16, -1
  br i1 %cmp17, label %if.then18, label %if.end21

if.then18:                                        ; preds = %if.end15
  %10 = load ptr, ptr %err.addr, align 8
  %call19 = call ptr @__errno_location() #8
  %11 = load i32, ptr %call19, align 4
  %call20 = call ptr @strerror(i32 noundef %11) #7
  call void (ptr, ptr, ...) @anetSetError(ptr noundef %10, ptr noundef @.str.1, ptr noundef %call20)
  store i32 -1, ptr %retval, align 4
  br label %return

if.end21:                                         ; preds = %if.end15
  store i32 0, ptr %retval, align 4
  br label %return

return:                                           ; preds = %if.end21, %if.then18, %if.then10, %if.then
  %12 = load i32, ptr %retval, align 4
  ret i32 %12
}

; Function Attrs: nounwind uwtable
define dso_local i32 @anetNonBlock(ptr noundef %err, i32 noundef %fd) #0 {
entry:
  %err.addr = alloca ptr, align 8
  %fd.addr = alloca i32, align 4
  store ptr %err, ptr %err.addr, align 8
  store i32 %fd, ptr %fd.addr, align 4
  %0 = load ptr, ptr %err.addr, align 8
  %1 = load i32, ptr %fd.addr, align 4
  %call = call i32 @anetSetBlock(ptr noundef %0, i32 noundef %1, i32 noundef 1)
  ret i32 %call
}

; Function Attrs: nounwind uwtable
define dso_local i32 @anetUnixGenericConnect(ptr noundef %err, ptr noundef %path, i32 noundef %flags) #0 {
entry:
  %retval = alloca i32, align 4
  %err.addr = alloca ptr, align 8
  %path.addr = alloca ptr, align 8
  %flags.addr = alloca i32, align 4
  %s = alloca i32, align 4
  %sa = alloca %struct.sockaddr_un, align 2
  %agg.tmp = alloca %union.__CONST_SOCKADDR_ARG, align 8
  store ptr %err, ptr %err.addr, align 8
  store ptr %path, ptr %path.addr, align 8
  store i32 %flags, ptr %flags.addr, align 4
  %0 = load ptr, ptr %err.addr, align 8
  %call = call i32 @anetCreateSocket(ptr noundef %0, i32 noundef 1)
  store i32 %call, ptr %s, align 4
  %cmp = icmp eq i32 %call, -1
  br i1 %cmp, label %if.then, label %if.end

if.then:                                          ; preds = %entry
  store i32 -1, ptr %retval, align 4
  br label %return

if.end:                                           ; preds = %entry
  %sun_family = getelementptr inbounds %struct.sockaddr_un, ptr %sa, i32 0, i32 0
  store i16 1, ptr %sun_family, align 2
  %sun_path = getelementptr inbounds %struct.sockaddr_un, ptr %sa, i32 0, i32 1
  %arraydecay = getelementptr inbounds [108 x i8], ptr %sun_path, i64 0, i64 0
  %1 = load ptr, ptr %path.addr, align 8
  %call1 = call i64 @redis_strlcpy(ptr noundef %arraydecay, ptr noundef %1, i64 noundef 108)
  %2 = load i32, ptr %flags.addr, align 4
  %and = and i32 %2, 1
  %tobool = icmp ne i32 %and, 0
  br i1 %tobool, label %if.then2, label %if.end8

if.then2:                                         ; preds = %if.end
  %3 = load ptr, ptr %err.addr, align 8
  %4 = load i32, ptr %s, align 4
  %call3 = call i32 @anetNonBlock(ptr noundef %3, i32 noundef %4)
  %cmp4 = icmp ne i32 %call3, 0
  br i1 %cmp4, label %if.then5, label %if.end7

if.then5:                                         ; preds = %if.then2
  %5 = load i32, ptr %s, align 4
  %call6 = call i32 @close(i32 noundef %5)
  store i32 -1, ptr %retval, align 4
  br label %return

if.end7:                                          ; preds = %if.then2
  br label %if.end8

if.end8:                                          ; preds = %if.end7, %if.end
  %6 = load i32, ptr %s, align 4
  store ptr %sa, ptr %agg.tmp, align 8
  %coerce.dive = getelementptr inbounds %union.__CONST_SOCKADDR_ARG, ptr %agg.tmp, i32 0, i32 0
  %7 = load ptr, ptr %coerce.dive, align 8
  %call9 = call i32 @connect(i32 noundef %6, ptr %7, i32 noundef 110)
  %cmp10 = icmp eq i32 %call9, -1
  br i1 %cmp10, label %if.then11, label %if.end21

if.then11:                                        ; preds = %if.end8
  %call12 = call ptr @__errno_location() #8
  %8 = load i32, ptr %call12, align 4
  %cmp13 = icmp eq i32 %8, 115
  br i1 %cmp13, label %land.lhs.true, label %if.end17

land.lhs.true:                                    ; preds = %if.then11
  %9 = load i32, ptr %flags.addr, align 4
  %and14 = and i32 %9, 1
  %tobool15 = icmp ne i32 %and14, 0
  br i1 %tobool15, label %if.then16, label %if.end17

if.then16:                                        ; preds = %land.lhs.true
  %10 = load i32, ptr %s, align 4
  store i32 %10, ptr %retval, align 4
  br label %return

if.end17:                                         ; preds = %land.lhs.true, %if.then11
  %11 = load ptr, ptr %err.addr, align 8
  %call18 = call ptr @__errno_location() #8
  %12 = load i32, ptr %call18, align 4
  %call19 = call ptr @strerror(i32 noundef %12) #7
  call void (ptr, ptr, ...) @anetSetError(ptr noundef %11, ptr noundef @.str.9, ptr noundef %call19)
  %13 = load i32, ptr %s, align 4
  %call20 = call i32 @close(i32 noundef %13)
  store i32 -1, ptr %retval, align 4
  br label %return

if.end21:                                         ; preds = %if.end8
  %14 = load i32, ptr %s, align 4
  store i32 %14, ptr %retval, align 4
  br label %return

return:                                           ; preds = %if.end21, %if.end17, %if.then16, %if.then5, %if.then
  %15 = load i32, ptr %retval, align 4
  ret i32 %15
}