; Function Attrs: nounwind uwtable
define dso_local i32 @anetUnixGenericConnect(ptr noundef %err, ptr noundef %path, i32 noundef %flags) local_unnamed_addr #0 {
entry:
  %sa = alloca %struct.sockaddr_un, align 2
  %call = tail call fastcc i32 @anetCreateSocket(ptr noundef %err)
  %cmp = icmp eq i32 %call, -1
  br i1 %cmp, label %return, label %if.end

if.end:                                           ; preds = %entry
  store i16 1, ptr %sa, align 2
  %sun_path = getelementptr inbounds i8, ptr %sa, i64 2
  %call1 = call i64 @redis_strlcpy(ptr noundef nonnull %sun_path, ptr noundef %path, i64 noundef 108) #10
  %and = and i32 %flags, 1
  %tobool.not = icmp eq i32 %and, 0
  br i1 %tobool.not, label %if.end8, label %if.then2

if.then2:                                         ; preds = %if.end
  %call.i.i = call i32 (i32, i32, ...) @fcntl64(i32 noundef %call, i32 noundef 3) #10
  %cmp.i.i = icmp eq i32 %call.i.i, -1
  br i1 %cmp.i.i, label %if.then5, label %if.end.i.i

if.end.i.i:                                       ; preds = %if.then2
  %0 = and i32 %call.i.i, 2048
  %.not.i = icmp eq i32 %0, 0
  br i1 %.not.i, label %if.end11.i.i, label %if.end8

if.end11.i.i:                                     ; preds = %if.end.i.i
  %flags.0.i.i = or disjoint i32 %call.i.i, 2048
  %call16.i.i = call i32 (i32, i32, ...) @fcntl64(i32 noundef %call, i32 noundef 4, i32 noundef %flags.0.i.i) #10
  %cmp17.i.i = icmp eq i32 %call16.i.i, -1
  br i1 %cmp17.i.i, label %if.then5, label %if.end8

if.then5:                                         ; preds = %if.end11.i.i, %if.then2
  %.str.1.sink.i.i = phi ptr [ @.str, %if.then2 ], [ @.str.1, %if.end11.i.i ]
  %call19.i.i = tail call ptr @__errno_location() #11
  %1 = load i32, ptr %call19.i.i, align 4
  br label %return.sink.split

if.end8:                                          ; preds = %if.end11.i.i, %if.end.i.i, %if.end
  %call9 = call i32 @connect(i32 noundef %call, ptr nonnull %sa, i32 noundef 110) #10
  %cmp10 = icmp eq i32 %call9, -1
  br i1 %cmp10, label %if.then11, label %return

if.then11:                                        ; preds = %if.end8
  %call12 = tail call ptr @__errno_location() #11
  %2 = load i32, ptr %call12, align 4
  %cmp13 = icmp ne i32 %2, 115
  %brmerge = or i1 %tobool.not, %cmp13
  br i1 %brmerge, label %return.sink.split, label %return

return.sink.split:                                ; preds = %if.then11, %if.then5
  %.sink = phi i32 [ %1, %if.then5 ], [ %2, %if.then11 ]
  %.str.9.sink = phi ptr [ %.str.1.sink.i.i, %if.then5 ], [ @.str.9, %if.then11 ]
  %call19 = call ptr @strerror(i32 noundef %.sink) #10
  call void (ptr, ptr, ...) @anetSetError(ptr noundef %err, ptr noundef nonnull %.str.9.sink, ptr noundef %call19)
  %call20 = call i32 @close(i32 noundef %call) #10
  br label %return

return:                                           ; preds = %return.sink.split, %if.end8, %if.then11, %entry
  %retval.0 = phi i32 [ -1, %entry ], [ %call, %if.then11 ], [ %call, %if.end8 ], [ -1, %return.sink.split ]
  ret i32 %retval.0
}